target datalayout = "e-m:e-p270:32:32-p271:32:32-p272:64:64-i64:64-i128:128-f80:128-n8:16:32:64-S128"
target triple = "x86_64-pc-linux-gnu"

%struct.UEnumeration = type { ptr, ptr, ptr, ptr, ptr, ptr, ptr }
%struct.UCharStringEnumeration = type { %struct.UEnumeration, i32, i32 }

; Function Attrs: inlinehint mustprogress nounwind uwtable
define internal noundef signext i8 @_ZL9U_SUCCESS10UErrorCode(i32 noundef %0) #1 {
  %2 = alloca i32, align 4
  store i32 %0, ptr %2, align 4, !tbaa !26
  %3 = load i32, ptr %2, align 4, !tbaa !26
  %4 = icmp sle i32 %3, 0
  %5 = zext i1 %4 to i8
  ret i8 %5
}

; Function Attrs: mustprogress uwtable
define ptr @uenum_openCharStringsEnumeration_77(ptr noundef %0, i32 noundef %1, ptr noundef %2) #0 {
  %4 = alloca ptr, align 8
  %5 = alloca i32, align 4
  %6 = alloca ptr, align 8
  %7 = alloca ptr, align 8
  store ptr %0, ptr %4, align 8, !tbaa !46
  store i32 %1, ptr %5, align 4, !tbaa !28
  store ptr %2, ptr %6, align 8, !tbaa !25
  call void @llvm.lifetime.start.p0(i64 8, ptr %7) #12
  store ptr null, ptr %7, align 8, !tbaa !49
  %8 = load ptr, ptr %6, align 8, !tbaa !25
  %9 = load i32, ptr %8, align 4, !tbaa !26
  %10 = call noundef signext i8 @_ZL9U_SUCCESS10UErrorCode(i32 noundef %9)
  %11 = icmp ne i8 %10, 0
  br i1 %11, label %12, label %42

12:                                               ; preds = %3
  %13 = load i32, ptr %5, align 4, !tbaa !28
  %14 = icmp sge i32 %13, 0
  br i1 %14, label %15, label %42

15:                                               ; preds = %12
  %16 = load i32, ptr %5, align 4, !tbaa !28
  %17 = icmp eq i32 %16, 0
  br i1 %17, label %21, label %18

18:                                               ; preds = %15
  %19 = load ptr, ptr %4, align 8, !tbaa !46
  %20 = icmp ne ptr %19, null
  br i1 %20, label %21, label %42

21:                                               ; preds = %18, %15
  %22 = call noalias ptr @uprv_malloc_77(i64 noundef 64) #14
  store ptr %22, ptr %7, align 8, !tbaa !49
  %23 = load ptr, ptr %7, align 8, !tbaa !49
  %24 = icmp eq ptr %23, null
  br i1 %24, label %25, label %27

25:                                               ; preds = %21
  %26 = load ptr, ptr %6, align 8, !tbaa !25
  store i32 7, ptr %26, align 4, !tbaa !26
  br label %41

27:                                               ; preds = %21
  br label %28

28:                                               ; preds = %27
  %29 = load ptr, ptr %7, align 8, !tbaa !49
  call void @llvm.memcpy.p0.p0.i64(ptr align 8 %29, ptr align 8 @_ZL15UCHARSTRENUM_VT, i64 56, i1 false)
  br label %30

30:                                               ; preds = %28
  br label %31

31:                                               ; preds = %30
  %32 = load ptr, ptr %4, align 8, !tbaa !46
  %33 = load ptr, ptr %7, align 8, !tbaa !49
  %34 = getelementptr inbounds nuw %struct.UCharStringEnumeration, ptr %33, i32 0, i32 0
  %35 = getelementptr inbounds nuw %struct.UEnumeration, ptr %34, i32 0, i32 1
  store ptr %32, ptr %35, align 8, !tbaa !51
  %36 = load ptr, ptr %7, align 8, !tbaa !49
  %37 = getelementptr inbounds nuw %struct.UCharStringEnumeration, ptr %36, i32 0, i32 1
  store i32 0, ptr %37, align 8, !tbaa !53
  %38 = load i32, ptr %5, align 4, !tbaa !28
  %39 = load ptr, ptr %7, align 8, !tbaa !49
  %40 = getelementptr inbounds nuw %struct.UCharStringEnumeration, ptr %39, i32 0, i32 2
  store i32 %38, ptr %40, align 4, !tbaa !54
  br label %41

41:                                               ; preds = %31, %25
  br label %42

42:                                               ; preds = %41, %18, %12, %3
  %43 = load ptr, ptr %7, align 8, !tbaa !49
  call void @llvm.lifetime.end.p0(i64 8, ptr %7) #12
  ret ptr %43
}