; Function Attrs: mustprogress uwtable
define noalias noundef ptr @uenum_openCharStringsEnumeration_77(ptr noundef %0, i32 noundef %1, ptr noundef captures(none) %2) local_unnamed_addr #9 {
  %4 = load i32, ptr %2, align 4, !tbaa !17
  %5 = icmp slt i32 %4, 1
  %6 = icmp sgt i32 %1, -1
  %or.cond = and i1 %6, %5
  br i1 %or.cond, label %7, label %18

7:                                                ; preds = %3
  %8 = icmp eq i32 %1, 0
  %9 = icmp ne ptr %0, null
  %or.cond3 = or i1 %9, %8
  br i1 %or.cond3, label %10, label %18

10:                                               ; preds = %7
  %11 = tail call noalias dereferenceable_or_null(64) ptr @uprv_malloc_77(i64 noundef 64) #20
  %12 = icmp eq ptr %11, null
  br i1 %12, label %13, label %14

13:                                               ; preds = %10
  store i32 7, ptr %2, align 4, !tbaa !17
  br label %18

14:                                               ; preds = %10
  tail call void @llvm.memcpy.p0.p0.i64(ptr noundef nonnull align 8 dereferenceable(56) %11, ptr noundef nonnull align 8 dereferenceable(56) @_ZL15UCHARSTRENUM_VT, i64 56, i1 false)
  %15 = getelementptr inbounds nuw i8, ptr %11, i64 8
  store ptr %0, ptr %15, align 8, !tbaa !29
  %16 = getelementptr inbounds nuw i8, ptr %11, i64 56
  store i32 0, ptr %16, align 8, !tbaa !31
  %17 = getelementptr inbounds nuw i8, ptr %11, i64 60
  store i32 %1, ptr %17, align 4, !tbaa !32
  br label %18

18:                                               ; preds = %13, %14, %7, %3
  %.0 = phi ptr [ null, %13 ], [ %11, %14 ], [ null, %7 ], [ null, %3 ]
  ret ptr %.0
}